; ModuleID = '58/1256.c'
source_filename = "58/1256.c"
target datalayout = "e-m:e-p270:32:32-p271:32:32-p272:64:64-i64:64-f80:128-n8:16:32:64-S128"
target triple = "x86_64-pc-linux-gnu"

@.str = private unnamed_addr constant [4 x i8] c"%d\0A\00", align 1

; Function Attrs: noinline nounwind uwtable
define dso_local i32 @main() #0 {
  %1 = alloca i32, align 4
  %2 = alloca i32, align 4
  %3 = alloca i32, align 4
  %4 = alloca i32, align 4
  %5 = alloca i32, align 4
  %6 = alloca i32, align 4
  %7 = alloca [81 x i8], align 16
  store i32 0, i32* %1, align 4
  %8 = getelementptr inbounds [81 x i8], [81 x i8]* %7, i64 0, i64 0
  %9 = call i32 (i8*, ...) bitcast (i32 (...)* @gets to i32 (i8*, ...)*)(i8* %8)
  %10 = getelementptr inbounds [81 x i8], [81 x i8]* %7, i64 0, i64 0
  %11 = call i32 @atoi(i8* %10) #3
  store i32 %11, i32* %2, align 4
  store i32 1, i32* %4, align 4
  br label %12

12:                                               ; preds = %121, %0
  %13 = load i32, i32* %4, align 4
  %14 = load i32, i32* %2, align 4
  %15 = icmp sle i32 %13, %14
  br i1 %15, label %16, label %124

16:                                               ; preds = %12
  %17 = getelementptr inbounds [81 x i8], [81 x i8]* %7, i64 0, i64 0
  %18 = call i32 (i8*, ...) bitcast (i32 (...)* @gets to i32 (i8*, ...)*)(i8* %17)
  %19 = getelementptr inbounds [81 x i8], [81 x i8]* %7, i64 0, i64 0
  %20 = call i64 @strlen(i8* %19) #3
  %21 = trunc i64 %20 to i32
  store i32 %21, i32* %5, align 4
  store i32 1, i32* %6, align 4
  store i32 0, i32* %3, align 4
  br label %22

22:                                               ; preds = %115, %16
  %23 = load i32, i32* %3, align 4
  %24 = load i32, i32* %5, align 4
  %25 = icmp slt i32 %23, %24
  br i1 %25, label %26, label %118

26:                                               ; preds = %22
  %27 = load i32, i32* %3, align 4
  %28 = icmp eq i32 %27, 0
  br i1 %28, label %29, label %56

29:                                               ; preds = %26
  %30 = getelementptr inbounds [81 x i8], [81 x i8]* %7, i64 0, i64 0
  %31 = load i8, i8* %30, align 16
  %32 = sext i8 %31 to i32
  %33 = icmp ne i32 %32, 95
  br i1 %33, label %34, label %55

34:                                               ; preds = %29
  %35 = getelementptr inbounds [81 x i8], [81 x i8]* %7, i64 0, i64 0
  %36 = load i8, i8* %35, align 16
  %37 = sext i8 %36 to i32
  %38 = icmp sgt i32 %37, 90
  br i1 %38, label %44, label %39

39:                                               ; preds = %34
  %40 = getelementptr inbounds [81 x i8], [81 x i8]* %7, i64 0, i64 0
  %41 = load i8, i8* %40, align 16
  %42 = sext i8 %41 to i32
  %43 = icmp slt i32 %42, 65
  br i1 %43, label %44, label %55

44:                                               ; preds = %39, %34
  %45 = getelementptr inbounds [81 x i8], [81 x i8]* %7, i64 0, i64 0
  %46 = load i8, i8* %45, align 16
  %47 = sext i8 %46 to i32
  %48 = icmp sgt i32 %47, 122
  br i1 %48, label %54, label %49

49:                                               ; preds = %44
  %50 = getelementptr inbounds [81 x i8], [81 x i8]* %7, i64 0, i64 0
  %51 = load i8, i8* %50, align 16
  %52 = sext i8 %51 to i32
  %53 = icmp slt i32 %52, 97
  br i1 %53, label %54, label %55

54:                                               ; preds = %49, %44
  store i32 0, i32* %6, align 4
  br label %118

55:                                               ; preds = %49, %39, %29
  br label %114

56:                                               ; preds = %26
  %57 = getelementptr inbounds [81 x i8], [81 x i8]* %7, i64 0, i64 0
  %58 = load i32, i32* %3, align 4
  %59 = sext i32 %58 to i64
  %60 = getelementptr inbounds i8, i8* %57, i64 %59
  %61 = load i8, i8* %60, align 1
  %62 = sext i8 %61 to i32
  %63 = icmp ne i32 %62, 95
  br i1 %63, label %64, label %113

64:                                               ; preds = %56
  %65 = getelementptr inbounds [81 x i8], [81 x i8]* %7, i64 0, i64 0
  %66 = load i32, i32* %3, align 4
  %67 = sext i32 %66 to i64
  %68 = getelementptr inbounds i8, i8* %65, i64 %67
  %69 = load i8, i8* %68, align 1
  %70 = sext i8 %69 to i32
  %71 = icmp sgt i32 %70, 90
  br i1 %71, label %80, label %72

72:                                               ; preds = %64
  %73 = getelementptr inbounds [81 x i8], [81 x i8]* %7, i64 0, i64 0
  %74 = load i32, i32* %3, align 4
  %75 = sext i32 %74 to i64
  %76 = getelementptr inbounds i8, i8* %73, i64 %75
  %77 = load i8, i8* %76, align 1
  %78 = sext i8 %77 to i32
  %79 = icmp slt i32 %78, 65
  br i1 %79, label %80, label %113

80:                                               ; preds = %72, %64
  %81 = getelementptr inbounds [81 x i8], [81 x i8]* %7, i64 0, i64 0
  %82 = load i32, i32* %3, align 4
  %83 = sext i32 %82 to i64
  %84 = getelementptr inbounds i8, i8* %81, i64 %83
  %85 = load i8, i8* %84, align 1
  %86 = sext i8 %85 to i32
  %87 = icmp sgt i32 %86, 122
  br i1 %87, label %96, label %88

88:                                               ; preds = %80
  %89 = getelementptr inbounds [81 x i8], [81 x i8]* %7, i64 0, i64 0
  %90 = load i32, i32* %3, align 4
  %91 = sext i32 %90 to i64
  %92 = getelementptr inbounds i8, i8* %89, i64 %91
  %93 = load i8, i8* %92, align 1
  %94 = sext i8 %93 to i32
  %95 = icmp slt i32 %94, 97
  br i1 %95, label %96, label %113

96:                                               ; preds = %88, %80
  %97 = getelementptr inbounds [81 x i8], [81 x i8]* %7, i64 0, i64 0
  %98 = load i32, i32* %3, align 4
  %99 = sext i32 %98 to i64
  %100 = getelementptr inbounds i8, i8* %97, i64 %99
  %101 = load i8, i8* %100, align 1
  %102 = sext i8 %101 to i32
  %103 = icmp sgt i32 %102, 57
  br i1 %103, label %112, label %104

104:                                              ; preds = %96
  %105 = getelementptr inbounds [81 x i8], [81 x i8]* %7, i64 0, i64 0
  %106 = load i32, i32* %3, align 4
  %107 = sext i32 %106 to i64
  %108 = getelementptr inbounds i8, i8* %105, i64 %107
  %109 = load i8, i8* %108, align 1
  %110 = sext i8 %109 to i32
  %111 = icmp slt i32 %110, 48
  br i1 %111, label %112, label %113

112:                                              ; preds = %104, %96
  store i32 0, i32* %6, align 4
  br label %118

113:                                              ; preds = %104, %88, %72, %56
  br label %114

114:                                              ; preds = %113, %55
  br label %115

115:                                              ; preds = %114
  %116 = load i32, i32* %3, align 4
  %117 = add nsw i32 %116, 1
  store i32 %117, i32* %3, align 4
  br label %22

118:                                              ; preds = %112, %54, %22
  %119 = load i32, i32* %6, align 4
  %120 = call i32 (i8*, ...) @printf(i8* getelementptr inbounds ([4 x i8], [4 x i8]* @.str, i64 0, i64 0), i32 %119)
  br label %121

121:                                              ; preds = %118
  %122 = load i32, i32* %4, align 4
  %123 = add nsw i32 %122, 1
  store i32 %123, i32* %4, align 4
  br label %12

124:                                              ; preds = %12
  ret i32 0
}

declare dso_local i32 @gets(...) #1

; Function Attrs: nounwind readonly
declare dso_local i32 @atoi(i8*) #2

; Function Attrs: nounwind readonly
declare dso_local i64 @strlen(i8*) #2

declare dso_local i32 @printf(i8*, ...) #1


!llvm.module.flags = !{!0}
!llvm.ident = !{!1}

!0 = !{i32 1, !"wchar_size", i32 4}
!1 = !{!"clang version 10.0.0-4ubuntu1 "}
